target datalayout = "e-m:e-p270:32:32-p271:32:32-p272:64:64-i64:64-i128:128-f80:128-n8:16:32:64-S128"
target triple = "x86_64-pc-linux-gnu"

%struct.quic_conn_id_st = type { i8, [20 x i8] }
%union.bio_addr_st = type { %struct.sockaddr_in6, [84 x i8] }
%struct.sockaddr_in6 = type { i16, i16, i32, %struct.in6_addr, i32 }
%struct.in6_addr = type { %union.anon }
%union.anon = type { [4 x i32] }
%struct.OSSL_TIME = type { i64 }
%struct.quic_channel_st = type { ptr, %struct.anon, %struct.anon.0, ptr, ptr, ptr, ptr, ptr, ptr, ptr, i64, %union.bio_addr_st, ptr, ptr, ptr, %struct.quic_txfc_st, %struct.quic_rxfc_st, [3 x %struct.quic_rxfc_st], %struct.quic_rxfc_st, %struct.quic_rxfc_st, %struct.quic_stream_map_st, %struct.ossl_statm_st, ptr, ptr, ptr, ptr, ptr, ptr, ptr, ptr, [3 x ptr], [3 x ptr], %struct.quic_conn_id_st, %struct.quic_conn_id_st, %struct.quic_conn_id_st, %struct.quic_conn_id_st, %struct.quic_conn_id_st, %struct.quic_conn_id_st, i64, i64, i64, i64, i64, i64, i64, i64, i64, i64, i8, i16, ptr, i64, i64, i64, i64, i64, i64, i64, i64, i64, i64, i64, i64, i64, %struct.quic_terminate_cause_st, %struct.OSSL_TIME, %struct.OSSL_TIME, %struct.OSSL_TIME, %struct.OSSL_TIME, %struct.OSSL_TIME, i64, i64, i64, ptr, ptr, i64, ptr }
%struct.anon = type { ptr, ptr }
%struct.anon.0 = type { ptr, ptr }
%struct.quic_txfc_st = type { ptr, i64, i64, i8 }
%struct.quic_rxfc_st = type { i64, i64, i64, i64, i64, i64, i64, %struct.OSSL_TIME, ptr, ptr, ptr, i8, i8, i8, i8 }
%struct.quic_stream_map_st = type { ptr, %struct.quic_stream_list_node_st, %struct.quic_stream_list_node_st, %struct.quic_stream_list_node_st, i64, i64, i64, i64, i64, ptr, ptr, ptr, ptr, ptr, i32 }
%struct.quic_stream_list_node_st = type { ptr, ptr }
%struct.ossl_statm_st = type { %struct.OSSL_TIME, %struct.OSSL_TIME, %struct.OSSL_TIME, %struct.OSSL_TIME, i8 }
%struct.quic_terminate_cause_st = type { i64, i64, ptr, i64, i8 }

@.str.6 = private unnamed_addr constant [22 x i8] c"network BIO I/O error\00", align 1

; Function Attrs: nounwind uwtable
define void @ossl_quic_channel_raise_net_error(ptr noundef %0) #0 {
  %2 = alloca ptr, align 8
  %3 = alloca %struct.quic_terminate_cause_st, align 8
  %4 = alloca i32, align 4
  store ptr %0, ptr %2, align 8, !tbaa !3
  call void @llvm.lifetime.start.p0(i64 40, ptr %3) #9
  call void @llvm.memset.p0.i64(ptr align 8 %3, i8 0, i64 40, i1 false)
  %5 = load ptr, ptr %2, align 8, !tbaa !3
  %6 = getelementptr inbounds nuw %struct.quic_channel_st, ptr %5, i32 0, i32 72
  %7 = load i64, ptr %6, align 8
  %8 = lshr i64 %7, 37
  %9 = and i64 %8, 1
  %10 = trunc i64 %9 to i32
  %11 = icmp ne i32 %10, 0
  br i1 %11, label %12, label %13

12:                                               ; preds = %1
  store i32 1, ptr %4, align 4
  br label %26

13:                                               ; preds = %1
  %14 = load ptr, ptr %2, align 8, !tbaa !3
  %15 = getelementptr inbounds nuw %struct.quic_channel_st, ptr %14, i32 0, i32 72
  %16 = load i64, ptr %15, align 8
  %17 = and i64 %16, -137438953473
  %18 = or i64 %17, 137438953472
  store i64 %18, ptr %15, align 8
  %19 = getelementptr inbounds nuw %struct.quic_terminate_cause_st, ptr %3, i32 0, i32 0
  store i64 1, ptr %19, align 8, !tbaa !228
  %20 = getelementptr inbounds nuw %struct.quic_terminate_cause_st, ptr %3, i32 0, i32 2
  store ptr @.str.6, ptr %20, align 8, !tbaa !229
  %21 = getelementptr inbounds nuw %struct.quic_terminate_cause_st, ptr %3, i32 0, i32 2
  %22 = load ptr, ptr %21, align 8, !tbaa !229
  %23 = call i64 @strlen(ptr noundef %22) #10
  %24 = getelementptr inbounds nuw %struct.quic_terminate_cause_st, ptr %3, i32 0, i32 3
  store i64 %23, ptr %24, align 8, !tbaa !230
  %25 = load ptr, ptr %2, align 8, !tbaa !3
  call void @ch_start_terminating(ptr noundef %25, ptr noundef %3, i32 noundef 1)
  store i32 0, ptr %4, align 4
  br label %26

26:                                               ; preds = %13, %12
  call void @llvm.lifetime.end.p0(i64 40, ptr %3) #9
  %27 = load i32, ptr %4, align 4
  switch i32 %27, label %29 [
    i32 0, label %28
    i32 1, label %28
  ]

28:                                               ; preds = %26, %26
  ret void

29:                                               ; preds = %26
  unreachable
}