; Function Attrs: nounwind uwtable
define void @ossl_quic_channel_raise_net_error(ptr noundef %0) local_unnamed_addr #0 {
  %2 = alloca %struct.quic_terminate_cause_st, align 8
  call void @llvm.lifetime.start.p0(i64 40, ptr nonnull %2) #15
  %3 = getelementptr inbounds nuw i8, ptr %2, i64 8
  call void @llvm.memset.p0.i64(ptr noundef nonnull align 8 dereferenceable(40) %3, i8 0, i64 32, i1 false)
  %4 = getelementptr inbounds nuw i8, ptr %0, i64 1568
  %5 = load i64, ptr %4, align 8
  %6 = and i64 %5, 137438953472
  %.not = icmp eq i64 %6, 0
  br i1 %.not, label %7, label %11

7:                                                ; preds = %1
  %8 = or disjoint i64 %5, 137438953472
  store i64 %8, ptr %4, align 8
  store i64 1, ptr %2, align 8, !tbaa !208
  %9 = getelementptr inbounds nuw i8, ptr %2, i64 16
  store ptr @.str.6, ptr %9, align 8, !tbaa !209
  %10 = getelementptr inbounds nuw i8, ptr %2, i64 24
  store i64 21, ptr %10, align 8, !tbaa !210
  call fastcc void @ch_start_terminating(ptr noundef nonnull %0, ptr noundef %2, i32 noundef 1)
  br label %11

11:                                               ; preds = %1, %7
  call void @llvm.lifetime.end.p0(i64 40, ptr nonnull %2) #15
  ret void
}